target datalayout = "e-m:e-p270:32:32-p271:32:32-p272:64:64-i64:64-f80:128-n8:16:32:64-S128"
target triple = "x86_64-pc-linux-gnu"

%struct.student = type { i32, i32, i32 }

@.str = private unnamed_addr constant [3 x i8] c"%d\00", align 1
@.str.1 = private unnamed_addr constant [9 x i8] c"%d %d %d\00", align 1
@.str.2 = private unnamed_addr constant [7 x i8] c"%d %d\0A\00", align 1
@.str.3 = private unnamed_addr constant [6 x i8] c"%d %d\00", align 1

; Function Attrs: noinline nounwind uwtable
define dso_local i32 @main() #0 {
  %1 = alloca i32, align 4
  %2 = alloca i32, align 4
  %3 = alloca i32, align 4
  %4 = alloca i32, align 4
  %5 = alloca i32, align 4
  %6 = alloca i32, align 4
  %7 = alloca i32, align 4
  %8 = alloca i32, align 4
  %9 = alloca i32, align 4
  %10 = alloca %struct.student*, align 8
  %11 = alloca i32*, align 8
  store i32 0, i32* %1, align 4
  store i32 0, i32* %4, align 4
  store i32 0, i32* %5, align 4
  store i32 0, i32* %6, align 4
  store i32 0, i32* %7, align 4
  store i32 0, i32* %8, align 4
  store i32 0, i32* %9, align 4
  %12 = call i32 (i8*, ...) @__isoc99_scanf(i8* getelementptr inbounds ([3 x i8], [3 x i8]* @.str, i64 0, i64 0), i32* %2)
  %13 = load i32, i32* %2, align 4
  %14 = sext i32 %13 to i64
  %15 = mul i64 12, %14
  %16 = call noalias i8* @malloc(i64 %15) #3
  %17 = bitcast i8* %16 to %struct.student*
  store %struct.student* %17, %struct.student** %10, align 8
  %18 = load i32, i32* %2, align 4
  %19 = sext i32 %18 to i64
  %20 = mul i64 4, %19
  %21 = call noalias i8* @malloc(i64 %20) #3
  %22 = bitcast i8* %21 to i32*
  store i32* %22, i32** %11, align 8
  store i32 0, i32* %3, align 4
  br label %23

23:                                               ; preds = %61, %0
  %24 = load i32, i32* %3, align 4
  %25 = load i32, i32* %2, align 4
  %26 = icmp slt i32 %24, %25
  br i1 %26, label %27, label %64

27:                                               ; preds = %23
  %28 = load %struct.student*, %struct.student** %10, align 8
  %29 = load i32, i32* %3, align 4
  %30 = sext i32 %29 to i64
  %31 = getelementptr inbounds %struct.student, %struct.student* %28, i64 %30
  %32 = getelementptr inbounds %struct.student, %struct.student* %31, i32 0, i32 0
  %33 = load %struct.student*, %struct.student** %10, align 8
  %34 = load i32, i32* %3, align 4
  %35 = sext i32 %34 to i64
  %36 = getelementptr inbounds %struct.student, %struct.student* %33, i64 %35
  %37 = getelementptr inbounds %struct.student, %struct.student* %36, i32 0, i32 1
  %38 = load %struct.student*, %struct.student** %10, align 8
  %39 = load i32, i32* %3, align 4
  %40 = sext i32 %39 to i64
  %41 = getelementptr inbounds %struct.student, %struct.student* %38, i64 %40
  %42 = getelementptr inbounds %struct.student, %struct.student* %41, i32 0, i32 2
  %43 = call i32 (i8*, ...) @__isoc99_scanf(i8* getelementptr inbounds ([9 x i8], [9 x i8]* @.str.1, i64 0, i64 0), i32* %32, i32* %37, i32* %42)
  %44 = load %struct.student*, %struct.student** %10, align 8
  %45 = load i32, i32* %3, align 4
  %46 = sext i32 %45 to i64
  %47 = getelementptr inbounds %struct.student, %struct.student* %44, i64 %46
  %48 = getelementptr inbounds %struct.student, %struct.student* %47, i32 0, i32 1
  %49 = load i32, i32* %48, align 4
  %50 = load %struct.student*, %struct.student** %10, align 8
  %51 = load i32, i32* %3, align 4
  %52 = sext i32 %51 to i64
  %53 = getelementptr inbounds %struct.student, %struct.student* %50, i64 %52
  %54 = getelementptr inbounds %struct.student, %struct.student* %53, i32 0, i32 2
  %55 = load i32, i32* %54, align 4
  %56 = add nsw i32 %49, %55
  %57 = load i32*, i32** %11, align 8
  %58 = load i32, i32* %3, align 4
  %59 = sext i32 %58 to i64
  %60 = getelementptr inbounds i32, i32* %57, i64 %59
  store i32 %56, i32* %60, align 4
  br label %61

61:                                               ; preds = %27
  %62 = load i32, i32* %3, align 4
  %63 = add nsw i32 %62, 1
  store i32 %63, i32* %3, align 4
  br label %23

64:                                               ; preds = %23
  store i32 0, i32* %3, align 4
  br label %65

65:                                               ; preds = %90, %64
  %66 = load i32, i32* %3, align 4
  %67 = load i32, i32* %2, align 4
  %68 = icmp slt i32 %66, %67
  br i1 %68, label %69, label %93

69:                                               ; preds = %65
  %70 = load i32*, i32** %11, align 8
  %71 = load i32, i32* %3, align 4
  %72 = sext i32 %71 to i64
  %73 = getelementptr inbounds i32, i32* %70, i64 %72
  %74 = load i32, i32* %73, align 4
  %75 = load i32*, i32** %11, align 8
  %76 = load i32, i32* %7, align 4
  %77 = sext i32 %76 to i64
  %78 = getelementptr inbounds i32, i32* %75, i64 %77
  %79 = load i32, i32* %78, align 4
  %80 = icmp sgt i32 %74, %79
  br i1 %80, label %81, label %89

81:                                               ; preds = %69
  %82 = load i32, i32* %3, align 4
  store i32 %82, i32* %7, align 4
  %83 = load %struct.student*, %struct.student** %10, align 8
  %84 = load i32, i32* %3, align 4
  %85 = sext i32 %84 to i64
  %86 = getelementptr inbounds %struct.student, %struct.student* %83, i64 %85
  %87 = getelementptr inbounds %struct.student, %struct.student* %86, i32 0, i32 0
  %88 = load i32, i32* %87, align 4
  store i32 %88, i32* %4, align 4
  br label %89

89:                                               ; preds = %81, %69
  br label %90

90:                                               ; preds = %89
  %91 = load i32, i32* %3, align 4
  %92 = add nsw i32 %91, 1
  store i32 %92, i32* %3, align 4
  br label %65

93:                                               ; preds = %65
  %94 = load i32, i32* %4, align 4
  %95 = load i32*, i32** %11, align 8
  %96 = load i32, i32* %7, align 4
  %97 = sext i32 %96 to i64
  %98 = getelementptr inbounds i32, i32* %95, i64 %97
  %99 = load i32, i32* %98, align 4
  %100 = call i32 (i8*, ...) @printf(i8* getelementptr inbounds ([7 x i8], [7 x i8]* @.str.2, i64 0, i64 0), i32 %94, i32 %99)
  store i32 0, i32* %3, align 4
  br label %101

101:                                              ; preds = %131, %93
  %102 = load i32, i32* %3, align 4
  %103 = load i32, i32* %2, align 4
  %104 = icmp slt i32 %102, %103
  br i1 %104, label %105, label %134

105:                                              ; preds = %101
  %106 = load i32, i32* %3, align 4
  %107 = load i32, i32* %7, align 4
  %108 = icmp eq i32 %106, %107
  br i1 %108, label %109, label %110

109:                                              ; preds = %105
  br label %131

110:                                              ; preds = %105
  %111 = load i32*, i32** %11, align 8
  %112 = load i32, i32* %3, align 4
  %113 = sext i32 %112 to i64
  %114 = getelementptr inbounds i32, i32* %111, i64 %113
  %115 = load i32, i32* %114, align 4
  %116 = load i32*, i32** %11, align 8
  %117 = load i32, i32* %8, align 4
  %118 = sext i32 %117 to i64
  %119 = getelementptr inbounds i32, i32* %116, i64 %118
  %120 = load i32, i32* %119, align 4
  %121 = icmp sgt i32 %115, %120
  br i1 %121, label %122, label %130

122:                                              ; preds = %110
  %123 = load i32, i32* %3, align 4
  store i32 %123, i32* %8, align 4
  %124 = load %struct.student*, %struct.student** %10, align 8
  %125 = load i32, i32* %3, align 4
  %126 = sext i32 %125 to i64
  %127 = getelementptr inbounds %struct.student, %struct.student* %124, i64 %126
  %128 = getelementptr inbounds %struct.student, %struct.student* %127, i32 0, i32 0
  %129 = load i32, i32* %128, align 4
  store i32 %129, i32* %5, align 4
  br label %130

130:                                              ; preds = %122, %110
  br label %131

131:                                              ; preds = %130, %109
  %132 = load i32, i32* %3, align 4
  %133 = add nsw i32 %132, 1
  store i32 %133, i32* %3, align 4
  br label %101

134:                                              ; preds = %101
  %135 = load i32, i32* %5, align 4
  %136 = load i32*, i32** %11, align 8
  %137 = load i32, i32* %8, align 4
  %138 = sext i32 %137 to i64
  %139 = getelementptr inbounds i32, i32* %136, i64 %138
  %140 = load i32, i32* %139, align 4
  %141 = call i32 (i8*, ...) @printf(i8* getelementptr inbounds ([7 x i8], [7 x i8]* @.str.2, i64 0, i64 0), i32 %135, i32 %140)
  store i32 0, i32* %3, align 4
  br label %142

142:                                              ; preds = %176, %134
  %143 = load i32, i32* %3, align 4
  %144 = load i32, i32* %2, align 4
  %145 = icmp slt i32 %143, %144
  br i1 %145, label %146, label %179

146:                                              ; preds = %142
  %147 = load i32, i32* %3, align 4
  %148 = load i32, i32* %7, align 4
  %149 = icmp eq i32 %147, %148
  br i1 %149, label %154, label %150

150:                                              ; preds = %146
  %151 = load i32, i32* %3, align 4
  %152 = load i32, i32* %8, align 4
  %153 = icmp eq i32 %151, %152
  br i1 %153, label %154, label %155

154:                                              ; preds = %150, %146
  br label %176

155:                                              ; preds = %150
  %156 = load i32*, i32** %11, align 8
  %157 = load i32, i32* %3, align 4
  %158 = sext i32 %157 to i64
  %159 = getelementptr inbounds i32, i32* %156, i64 %158
  %160 = load i32, i32* %159, align 4
  %161 = load i32*, i32** %11, align 8
  %162 = load i32, i32* %9, align 4
  %163 = sext i32 %162 to i64
  %164 = getelementptr inbounds i32, i32* %161, i64 %163
  %165 = load i32, i32* %164, align 4
  %166 = icmp sgt i32 %160, %165
  br i1 %166, label %167, label %175

167:                                              ; preds = %155
  %168 = load i32, i32* %3, align 4
  store i32 %168, i32* %9, align 4
  %169 = load %struct.student*, %struct.student** %10, align 8
  %170 = load i32, i32* %3, align 4
  %171 = sext i32 %170 to i64
  %172 = getelementptr inbounds %struct.student, %struct.student* %169, i64 %171
  %173 = getelementptr inbounds %struct.student, %struct.student* %172, i32 0, i32 0
  %174 = load i32, i32* %173, align 4
  store i32 %174, i32* %6, align 4
  br label %175

175:                                              ; preds = %167, %155
  br label %176

176:                                              ; preds = %175, %154
  %177 = load i32, i32* %3, align 4
  %178 = add nsw i32 %177, 1
  store i32 %178, i32* %3, align 4
  br label %142

179:                                              ; preds = %142
  %180 = load i32, i32* %6, align 4
  %181 = load i32*, i32** %11, align 8
  %182 = load i32, i32* %9, align 4
  %183 = sext i32 %182 to i64
  %184 = getelementptr inbounds i32, i32* %181, i64 %183
  %185 = load i32, i32* %184, align 4
  %186 = call i32 (i8*, ...) @printf(i8* getelementptr inbounds ([6 x i8], [6 x i8]* @.str.3, i64 0, i64 0), i32 %180, i32 %185)
  %187 = load i32*, i32** %11, align 8
  %188 = bitcast i32* %187 to i8*
  call void @free(i8* %188) #3
  ret i32 0
}